target datalayout = "e-m:e-p270:32:32-p271:32:32-p272:64:64-i64:64-i128:128-f80:128-n8:16:32:64-S128"
target triple = "x86_64-pc-linux-gnu"

%"class.std::__cxx11::basic_string" = type { %"struct.std::__cxx11::basic_string<char>::_Alloc_hider", i64, %union.anon }
%"struct.std::__cxx11::basic_string<char>::_Alloc_hider" = type { ptr }
%union.anon = type { i64, [8 x i8] }
%"struct.faiss::IndexBinary" = type { ptr, i32, i32, i64, i8, i8, i32 }

@.str = private unnamed_addr constant [19 x i8] c"Error: '%s' failed\00", align 1
@.str.1 = private unnamed_addr constant [11 x i8] c"d % 8 == 0\00", align 1
@__PRETTY_FUNCTION__._ZN5faiss11IndexBinaryC2ElNS_10MetricTypeE = private unnamed_addr constant [51 x i8] c"faiss::IndexBinary::IndexBinary(idx_t, MetricType)\00", align 1
@.str.2 = private unnamed_addr constant [111 x i8] c"generated/home/dtcxzyw/WorkSpace/Projects/compilers/llvm-opt-benchmark/bench/faiss/faiss/faiss/IndexBinary.cpp\00", align 1
@_ZTIN5faiss14FaissExceptionE = external constant ptr

; Function Attrs: mustprogress uwtable
define void @_ZN5faiss11IndexBinaryC2ElNS_10MetricTypeE(ptr noundef nonnull align 8 dereferenceable(32) %0, i64 noundef %1, i32 noundef %2) unnamed_addr #1 align 2 personality ptr @__gxx_personality_v0 {
  %4 = alloca ptr, align 8
  %5 = alloca i64, align 8
  %6 = alloca i32, align 4
  %7 = alloca %"class.std::__cxx11::basic_string", align 8
  %8 = alloca i32, align 4
  %9 = alloca ptr, align 8
  %10 = alloca i32, align 4
  store ptr %0, ptr %4, align 8
  store i64 %1, ptr %5, align 8
  store i32 %2, ptr %6, align 4
  %11 = load ptr, ptr %4, align 8
  store ptr getelementptr inbounds ({ [16 x ptr] }, ptr @_ZTVN5faiss11IndexBinaryE, i32 0, i32 0, i32 2), ptr %11, align 8
  %12 = getelementptr inbounds %"struct.faiss::IndexBinary", ptr %11, i32 0, i32 1
  %13 = load i64, ptr %5, align 8
  %14 = trunc i64 %13 to i32
  store i32 %14, ptr %12, align 8
  %15 = getelementptr inbounds %"struct.faiss::IndexBinary", ptr %11, i32 0, i32 2
  %16 = load i64, ptr %5, align 8
  %17 = sdiv i64 %16, 8
  %18 = trunc i64 %17 to i32
  store i32 %18, ptr %15, align 4
  %19 = getelementptr inbounds %"struct.faiss::IndexBinary", ptr %11, i32 0, i32 3
  store i64 0, ptr %19, align 8
  %20 = getelementptr inbounds %"struct.faiss::IndexBinary", ptr %11, i32 0, i32 4
  store i8 0, ptr %20, align 8
  %21 = getelementptr inbounds %"struct.faiss::IndexBinary", ptr %11, i32 0, i32 5
  store i8 1, ptr %21, align 1
  %22 = getelementptr inbounds %"struct.faiss::IndexBinary", ptr %11, i32 0, i32 6
  %23 = load i32, ptr %6, align 4
  store i32 %23, ptr %22, align 4
  br label %24

24:                                               ; preds = %3
  %25 = load i64, ptr %5, align 8
  %26 = srem i64 %25, 8
  %27 = icmp eq i64 %26, 0
  br i1 %27, label %51, label %28

28:                                               ; preds = %24
  br label %29

29:                                               ; preds = %28
  call void @_ZNSt7__cxx1112basic_stringIcSt11char_traitsIcESaIcEEC1Ev(ptr noundef nonnull align 8 dereferenceable(32) %7) #11
  %30 = call i32 (ptr, i64, ptr, ...) @snprintf(ptr noundef null, i64 noundef 0, ptr noundef @.str, ptr noundef @.str.1) #11
  store i32 %30, ptr %8, align 4
  %31 = load i32, ptr %8, align 4
  %32 = add nsw i32 %31, 1
  %33 = sext i32 %32 to i64
  invoke void @_ZNSt7__cxx1112basic_stringIcSt11char_traitsIcESaIcEE6resizeEm(ptr noundef nonnull align 8 dereferenceable(32) %7, i64 noundef %33)
          to label %34 unwind label %41

34:                                               ; preds = %29
  %35 = invoke noundef nonnull align 1 dereferenceable(1) ptr @_ZNSt7__cxx1112basic_stringIcSt11char_traitsIcESaIcEEixEm(ptr noundef nonnull align 8 dereferenceable(32) %7, i64 noundef 0)
          to label %36 unwind label %41

36:                                               ; preds = %34
  %37 = call noundef i64 @_ZNKSt7__cxx1112basic_stringIcSt11char_traitsIcESaIcEE4sizeEv(ptr noundef nonnull align 8 dereferenceable(32) %7) #11
  %38 = call i32 (ptr, i64, ptr, ...) @snprintf(ptr noundef %35, i64 noundef %37, ptr noundef @.str, ptr noundef @.str.1) #11
  %39 = call ptr @__cxa_allocate_exception(i64 40) #11
  invoke void @_ZN5faiss14FaissExceptionC1ERKNSt7__cxx1112basic_stringIcSt11char_traitsIcESaIcEEEPKcSA_i(ptr noundef nonnull align 8 dereferenceable(40) %39, ptr noundef nonnull align 8 dereferenceable(32) %7, ptr noundef @__PRETTY_FUNCTION__._ZN5faiss11IndexBinaryC2ElNS_10MetricTypeE, ptr noundef @.str.2, i32 noundef 20)
          to label %40 unwind label %45

40:                                               ; preds = %36
  invoke void @__cxa_throw(ptr %39, ptr @_ZTIN5faiss14FaissExceptionE, ptr @_ZN5faiss14FaissExceptionD2Ev) #12
          to label %58 unwind label %41

41:                                               ; preds = %40, %34, %29
  %42 = landingpad { ptr, i32 }
          cleanup
  %43 = extractvalue { ptr, i32 } %42, 0
  store ptr %43, ptr %9, align 8
  %44 = extractvalue { ptr, i32 } %42, 1
  store i32 %44, ptr %10, align 4
  br label %49

45:                                               ; preds = %36
  %46 = landingpad { ptr, i32 }
          cleanup
  %47 = extractvalue { ptr, i32 } %46, 0
  store ptr %47, ptr %9, align 8
  %48 = extractvalue { ptr, i32 } %46, 1
  store i32 %48, ptr %10, align 4
  call void @__cxa_free_exception(ptr %39) #11
  br label %49

49:                                               ; preds = %45, %41
  call void @_ZNSt7__cxx1112basic_stringIcSt11char_traitsIcESaIcEED1Ev(ptr noundef nonnull align 8 dereferenceable(32) %7) #11
  br label %53

50:                                               ; No predecessors!
  br label %51

51:                                               ; preds = %50, %24
  br label %52

52:                                               ; preds = %51
  ret void

53:                                               ; preds = %49
  %54 = load ptr, ptr %9, align 8
  %55 = load i32, ptr %10, align 4
  %56 = insertvalue { ptr, i32 } poison, ptr %54, 0
  %57 = insertvalue { ptr, i32 } %56, i32 %55, 1
  resume { ptr, i32 } %57

58:                                               ; preds = %40
  unreachable
}