; Function Attrs: mustprogress uwtable
define void @_ZN5faiss11IndexBinaryC2ElNS_10MetricTypeE(ptr nocapture noundef nonnull writeonly align 8 dereferenceable(32) %0, i64 noundef %1, i32 noundef %2) unnamed_addr #3 align 2 personality ptr @__gxx_personality_v0 {
  %4 = alloca %"class.std::__cxx11::basic_string", align 8
  store ptr getelementptr inbounds ({ [16 x ptr] }, ptr @_ZTVN5faiss11IndexBinaryE, i64 0, i32 0, i64 2), ptr %0, align 8
  %5 = getelementptr inbounds i8, ptr %0, i64 8
  %6 = trunc i64 %1 to i32
  store i32 %6, ptr %5, align 8
  %7 = getelementptr inbounds i8, ptr %0, i64 12
  %8 = sdiv i64 %1, 8
  %9 = trunc i64 %8 to i32
  store i32 %9, ptr %7, align 4
  %10 = getelementptr inbounds i8, ptr %0, i64 16
  store i64 0, ptr %10, align 8
  %11 = getelementptr inbounds i8, ptr %0, i64 24
  store i8 0, ptr %11, align 8
  %12 = getelementptr inbounds i8, ptr %0, i64 25
  store i8 1, ptr %12, align 1
  %13 = getelementptr inbounds i8, ptr %0, i64 28
  store i32 %2, ptr %13, align 4
  %14 = and i64 %1, 7
  %15 = icmp eq i64 %14, 0
  br i1 %15, label %32, label %16

16:                                               ; preds = %3
  call void @_ZNSt7__cxx1112basic_stringIcSt11char_traitsIcESaIcEEC1Ev(ptr noundef nonnull align 8 dereferenceable(32) %4) #16
  %17 = call i32 (ptr, i64, ptr, ...) @snprintf(ptr noundef null, i64 noundef 0, ptr noundef nonnull @.str, ptr noundef nonnull @.str.1) #16
  %18 = add nsw i32 %17, 1
  %19 = sext i32 %18 to i64
  invoke void @_ZNSt7__cxx1112basic_stringIcSt11char_traitsIcESaIcEE6resizeEm(ptr noundef nonnull align 8 dereferenceable(32) %4, i64 noundef %19)
          to label %20 unwind label %27

20:                                               ; preds = %16
  %21 = invoke noundef nonnull align 1 dereferenceable(1) ptr @_ZNSt7__cxx1112basic_stringIcSt11char_traitsIcESaIcEEixEm(ptr noundef nonnull align 8 dereferenceable(32) %4, i64 noundef 0)
          to label %22 unwind label %27

22:                                               ; preds = %20
  %23 = call noundef i64 @_ZNKSt7__cxx1112basic_stringIcSt11char_traitsIcESaIcEE4sizeEv(ptr noundef nonnull align 8 dereferenceable(32) %4) #16
  %24 = call i32 (ptr, i64, ptr, ...) @snprintf(ptr noundef nonnull %21, i64 noundef %23, ptr noundef nonnull @.str, ptr noundef nonnull @.str.1) #16
  %25 = call ptr @__cxa_allocate_exception(i64 40) #16
  invoke void @_ZN5faiss14FaissExceptionC1ERKNSt7__cxx1112basic_stringIcSt11char_traitsIcESaIcEEEPKcSA_i(ptr noundef nonnull align 8 dereferenceable(40) %25, ptr noundef nonnull align 8 dereferenceable(32) %4, ptr noundef nonnull @__PRETTY_FUNCTION__._ZN5faiss11IndexBinaryC2ElNS_10MetricTypeE, ptr noundef nonnull @.str.2, i32 noundef 20)
          to label %26 unwind label %29

26:                                               ; preds = %22
  invoke void @__cxa_throw(ptr nonnull %25, ptr nonnull @_ZTIN5faiss14FaissExceptionE, ptr nonnull @_ZN5faiss14FaissExceptionD2Ev) #17
          to label %33 unwind label %27

27:                                               ; preds = %26, %20, %16
  %28 = landingpad { ptr, i32 }
          cleanup
  br label %31

29:                                               ; preds = %22
  %30 = landingpad { ptr, i32 }
          cleanup
  call void @__cxa_free_exception(ptr %25) #16
  br label %31

31:                                               ; preds = %29, %27
  %.pn = phi { ptr, i32 } [ %28, %27 ], [ %30, %29 ]
  call void @_ZNSt7__cxx1112basic_stringIcSt11char_traitsIcESaIcEED1Ev(ptr noundef nonnull align 8 dereferenceable(32) %4) #16
  resume { ptr, i32 } %.pn

32:                                               ; preds = %3
  ret void

33:                                               ; preds = %26
  unreachable
}